; Function Attrs: mustprogress null_pointer_is_valid sspstrong uwtable
define internal void @"_ZN9QtPrivate18QFunctorSlotObjectIZN19WiresharkMainWindow28connectStatisticsMenuActionsEvE4$_23Li0ENS_4ListIJEEEvE4implEiPNS_15QSlotObjectBaseEP7QObjectPPvPb"(i32 noundef %0, ptr noundef %1, ptr readnone captures(none) %2, ptr readnone captures(none) %3, ptr readnone captures(none) %4) #0 align 2 personality ptr @__gxx_personality_v0 {
  %6 = alloca { i64, i64 }, align 8
  %7 = alloca { i64, i64 }, align 8
  %8 = alloca %"class.QMetaObject::Connection", align 8
  switch i32 %0, label %26 [
    i32 0, label %9
    i32 1, label %12
  ]

9:                                                ; preds = %5
  %10 = icmp eq ptr %1, null
  br i1 %10, label %26, label %11

11:                                               ; preds = %9
  tail call void @_ZdlPvm(ptr noundef nonnull %1, i64 noundef 24) #26
  br label %26

12:                                               ; preds = %5
  %13 = getelementptr inbounds nuw i8, ptr %1, i64 16
  %.val = load ptr, ptr %13, align 8
  call void @llvm.lifetime.start.p0(i64 8, ptr nonnull %8)
  %14 = tail call noalias noundef dereferenceable_or_null(64) ptr @_Znwm(i64 noundef 64) #28
  %15 = getelementptr inbounds nuw i8, ptr %.val, i64 40
  %16 = invoke noundef zeroext i1 @_ZNK11CaptureFile7isValidEv(ptr noundef nonnull align 8 dereferenceable_or_null(48) %15)
          to label %.noexc.i.i.i unwind label %21

.noexc.i.i.i:                                     ; preds = %12
  br i1 %16, label %17, label %_ZNK11CaptureFile7capFileEv.exit.i.i.i

17:                                               ; preds = %.noexc.i.i.i
  %18 = getelementptr inbounds nuw i8, ptr %.val, i64 56
  %19 = load ptr, ptr %18, align 8
  br label %_ZNK11CaptureFile7capFileEv.exit.i.i.i

_ZNK11CaptureFile7capFileEv.exit.i.i.i:           ; preds = %17, %.noexc.i.i.i
  %20 = phi ptr [ %19, %17 ], [ null, %.noexc.i.i.i ]
  invoke void @_ZN15LBMStreamDialogC1EP7QWidgetP13_capture_file(ptr noundef align 8 dereferenceable_or_null(64) %14, ptr noundef %.val, ptr noundef %20)
          to label %"_ZN9QtPrivate7FunctorIZN19WiresharkMainWindow28connectStatisticsMenuActionsEvE4$_23Li0EE4callINS_4ListIJEEEvEEvRS2_PvPS8_.exit" unwind label %21

21:                                               ; preds = %_ZNK11CaptureFile7capFileEv.exit.i.i.i, %12
  %22 = landingpad { ptr, i32 }
          cleanup
  tail call void @_ZdlPvm(ptr noundef %14, i64 noundef 64) #26
  resume { ptr, i32 } %22

"_ZN9QtPrivate7FunctorIZN19WiresharkMainWindow28connectStatisticsMenuActionsEvE4$_23Li0EE4callINS_4ListIJEEEvEEvRS2_PvPS8_.exit": ; preds = %_ZNK11CaptureFile7capFileEv.exit.i.i.i
  call void @llvm.lifetime.start.p0(i64 16, ptr nonnull %6)
  call void @llvm.lifetime.start.p0(i64 16, ptr nonnull %7)
  store i64 ptrtoint (ptr @_ZN10MainWindow14setCaptureFileEP13_capture_file to i64), ptr %6, align 8, !noalias !1055
  %.fca.1.gep12.i.i.i.i = getelementptr inbounds nuw i8, ptr %6, i64 8
  store i64 0, ptr %.fca.1.gep12.i.i.i.i, align 8, !noalias !1055
  store i64 ptrtoint (ptr @_ZN15LBMStreamDialog14setCaptureFileEP13_capture_file to i64), ptr %7, align 8, !noalias !1055
  %.fca.1.gep.i.i.i.i = getelementptr inbounds nuw i8, ptr %7, i64 8
  store i64 0, ptr %.fca.1.gep.i.i.i.i, align 8, !noalias !1055
  %23 = tail call noalias noundef dereferenceable_or_null(32) ptr @_Znwm(i64 noundef 32) #28, !noalias !1055
  store i32 1, ptr %23, align 4, !noalias !1055
  %24 = getelementptr inbounds nuw i8, ptr %23, i64 8
  store ptr @_ZN9QtPrivate11QSlotObjectIM15LBMStreamDialogFvP13_capture_fileENS_4ListIJS3_EEEvE4implEiPNS_15QSlotObjectBaseEP7QObjectPPvPb, ptr %24, align 8, !noalias !1055
  %25 = getelementptr inbounds nuw i8, ptr %23, i64 16
  store i64 ptrtoint (ptr @_ZN15LBMStreamDialog14setCaptureFileEP13_capture_file to i64), ptr %25, align 8, !noalias !1055
  %.repack7.i.i.i.i.i = getelementptr inbounds nuw i8, ptr %23, i64 24
  store i64 0, ptr %.repack7.i.i.i.i.i, align 8, !noalias !1055
  call void @_ZN7QObject11connectImplEPKS_PPvS1_S3_PN9QtPrivate15QSlotObjectBaseEN2Qt14ConnectionTypeEPKiPK11QMetaObject(ptr dead_on_unwind nonnull writable sret(%"class.QMetaObject::Connection") align 8 %8, ptr noundef %.val, ptr noundef nonnull %6, ptr noundef %14, ptr noundef nonnull %7, ptr noundef %23, i32 noundef 0, ptr noundef null, ptr noundef nonnull @_ZN10MainWindow16staticMetaObjectE)
  call void @llvm.lifetime.end.p0(i64 16, ptr nonnull %6)
  call void @llvm.lifetime.end.p0(i64 16, ptr nonnull %7)
  call void @_ZN11QMetaObject10ConnectionD1Ev(ptr noundef nonnull align 8 dereferenceable_or_null(8) %8) #25
  call void @_ZN7QWidget4showEv(ptr noundef align 8 dereferenceable_or_null(40) %14)
  call void @llvm.lifetime.end.p0(i64 8, ptr nonnull %8)
  br label %26

26:                                               ; preds = %9, %11, %"_ZN9QtPrivate7FunctorIZN19WiresharkMainWindow28connectStatisticsMenuActionsEvE4$_23Li0EE4callINS_4ListIJEEEvEEvRS2_PvPS8_.exit", %5
  ret void
}